; Function Attrs: inlinehint mustprogress nounwind uwtable
define internal void @_ZN7rocksdb12experimental12_GLOBAL__N_136SemiStaticCappedKeySegmentsExtractorILm3EED0Ev(ptr noundef nonnull align 8 dereferenceable(56) initializes((0, 8)) %0) unnamed_addr #10 align 2 personality ptr @__gxx_personality_v0 {
  store ptr getelementptr inbounds nuw inrange(-16, 40) (i8, ptr @_ZTVN7rocksdb12experimental12_GLOBAL__N_136SemiStaticCappedKeySegmentsExtractorILm3EEE, i64 16), ptr %0, align 8, !tbaa !21
  %2 = getelementptr inbounds nuw i8, ptr %0, i64 24
  %3 = load ptr, ptr %2, align 8, !tbaa !11
  %4 = getelementptr inbounds nuw i8, ptr %0, i64 40
  %5 = icmp eq ptr %3, %4
  br i1 %5, label %_ZNKSt7__cxx1112basic_stringIcSt11char_traitsIcESaIcEE11_M_is_localEv.exit.thread.i.i.i, label %_ZNKSt7__cxx1112basic_stringIcSt11char_traitsIcESaIcEE11_M_is_localEv.exit.i.i.i

_ZNKSt7__cxx1112basic_stringIcSt11char_traitsIcESaIcEE11_M_is_localEv.exit.thread.i.i.i: ; preds = %1
  %6 = getelementptr inbounds nuw i8, ptr %0, i64 32
  %7 = load i64, ptr %6, align 8, !tbaa !16
  %8 = icmp ult i64 %7, 16
  tail call void @llvm.assume(i1 %8)
  br label %_ZN7rocksdb12experimental12_GLOBAL__N_136SemiStaticCappedKeySegmentsExtractorILm3EED2Ev.exit

_ZNKSt7__cxx1112basic_stringIcSt11char_traitsIcESaIcEE11_M_is_localEv.exit.i.i.i: ; preds = %1
  %9 = load i64, ptr %4, align 8, !tbaa !17
  %10 = add i64 %9, 1
  tail call void @_ZdlPvm(ptr noundef %3, i64 noundef %10) #33
  br label %_ZN7rocksdb12experimental12_GLOBAL__N_136SemiStaticCappedKeySegmentsExtractorILm3EED2Ev.exit

_ZN7rocksdb12experimental12_GLOBAL__N_136SemiStaticCappedKeySegmentsExtractorILm3EED2Ev.exit: ; preds = %_ZNKSt7__cxx1112basic_stringIcSt11char_traitsIcESaIcEE11_M_is_localEv.exit.thread.i.i.i, %_ZNKSt7__cxx1112basic_stringIcSt11char_traitsIcESaIcEE11_M_is_localEv.exit.i.i.i
  tail call void @_ZdlPvm(ptr noundef nonnull %0, i64 noundef 56) #33
  ret void
}